; Function Attrs: nounwind uwtable
define ptr @l_Lean_Compiler_LCNF_normParams___at_Lean_Compiler_LCNF_normCodeImp___spec__3(i8 noundef zeroext %0, i8 noundef zeroext %1, ptr noundef %2, ptr noundef %3, ptr noundef %4, ptr noundef %5, ptr noundef %6, ptr noundef %7, ptr noundef %8) local_unnamed_addr #2 {
  tail call void @lean_inc_heartbeat() #6
  %10 = tail call noalias ptr @mi_malloc_small(i64 noundef 32) #6
  %11 = icmp eq ptr %10, null
  br i1 %11, label %12, label %lean_alloc_closure.exit

12:                                               ; preds = %9
  tail call void @lean_internal_panic_out_of_memory() #7
  unreachable

lean_alloc_closure.exit:                          ; preds = %9
  %13 = zext i8 %1 to i64
  %14 = shl nuw nsw i64 %13, 1
  %15 = or disjoint i64 %14, 1
  %16 = inttoptr i64 %15 to ptr
  %17 = getelementptr inbounds nuw i8, ptr %10, i64 4
  store i32 1, ptr %10, align 4, !tbaa !8
  store i32 -184549344, ptr %17, align 4
  %18 = getelementptr inbounds nuw i8, ptr %10, i64 8
  store ptr @l_Lean_Compiler_LCNF_normParam___at_Lean_Compiler_LCNF_normCodeImp___spec__4___rarg___boxed, ptr %18, align 8, !tbaa !4
  %19 = getelementptr inbounds nuw i8, ptr %10, i64 16
  store i16 8, ptr %19, align 8, !tbaa !12
  %20 = getelementptr inbounds nuw i8, ptr %10, i64 18
  store i16 1, ptr %20, align 2, !tbaa !12
  %21 = getelementptr inbounds nuw i8, ptr %10, i64 24
  store ptr %16, ptr %21, align 8, !tbaa !4
  %22 = tail call ptr @l___private_Init_Data_Array_BasicAux_0__mapMonoMImp_go___at_Lean_Compiler_LCNF_normCodeImp___spec__6(i8 zeroext poison, ptr noundef nonnull %10, ptr noundef nonnull inttoptr (i64 1 to ptr), ptr noundef %2, ptr noundef %3, ptr noundef %4, ptr noundef %5, ptr noundef %6, ptr noundef %7, ptr noundef %8)
  ret ptr %22
}